; Function Attrs: inlinehint mustprogress nounwind willreturn uwtable
define internal fastcc void @Vec_IntPushTwo(ptr noundef captures(none) %0, i32 noundef %1) unnamed_addr #6 {
  %3 = getelementptr inbounds nuw i8, ptr %0, i64 4
  %4 = load i32, ptr %3, align 4, !tbaa !9
  %5 = load i32, ptr %0, align 8, !tbaa !14
  %6 = icmp eq i32 %4, %5
  br i1 %6, label %7, label %.Vec_IntGrow.exit10_crit_edge.i

.Vec_IntGrow.exit10_crit_edge.i:                  ; preds = %2
  %.phi.trans.insert.i = getelementptr inbounds nuw i8, ptr %0, i64 8
  %.pre.i = load ptr, ptr %.phi.trans.insert.i, align 8, !tbaa !15
  br label %Vec_IntPush.exit

7:                                                ; preds = %2
  %8 = icmp slt i32 %4, 16
  br i1 %8, label %9, label %17

9:                                                ; preds = %7
  %10 = getelementptr inbounds nuw i8, ptr %0, i64 8
  %11 = load ptr, ptr %10, align 8, !tbaa !15
  %.not9.i.i = icmp eq ptr %11, null
  br i1 %.not9.i.i, label %14, label %12

12:                                               ; preds = %9
  %13 = tail call dereferenceable_or_null(64) ptr @realloc(ptr noundef nonnull %11, i64 noundef 64) #29
  br label %Vec_IntGrow.exit.i

14:                                               ; preds = %9
  %15 = tail call noalias dereferenceable_or_null(64) ptr @malloc(i64 noundef 64) #28
  br label %Vec_IntGrow.exit.i

Vec_IntGrow.exit.i:                               ; preds = %14, %12
  %16 = phi ptr [ %13, %12 ], [ %15, %14 ]
  store ptr %16, ptr %10, align 8, !tbaa !15
  store i32 16, ptr %0, align 8, !tbaa !14
  br label %Vec_IntPush.exit

17:                                               ; preds = %7
  %18 = shl nuw nsw i32 %4, 1
  %19 = getelementptr inbounds nuw i8, ptr %0, i64 8
  %20 = load ptr, ptr %19, align 8, !tbaa !15
  %.not9.i9.i = icmp eq ptr %20, null
  %21 = zext nneg i32 %18 to i64
  %22 = shl nuw nsw i64 %21, 2
  br i1 %.not9.i9.i, label %25, label %23

23:                                               ; preds = %17
  %24 = tail call ptr @realloc(ptr noundef nonnull %20, i64 noundef %22) #29
  br label %27

25:                                               ; preds = %17
  %26 = tail call noalias ptr @malloc(i64 noundef %22) #28
  br label %27

27:                                               ; preds = %25, %23
  %28 = phi ptr [ %24, %23 ], [ %26, %25 ]
  store ptr %28, ptr %19, align 8, !tbaa !15
  store i32 %18, ptr %0, align 8, !tbaa !14
  br label %Vec_IntPush.exit

Vec_IntPush.exit:                                 ; preds = %.Vec_IntGrow.exit10_crit_edge.i, %Vec_IntGrow.exit.i, %27
  %29 = phi ptr [ %.pre.i, %.Vec_IntGrow.exit10_crit_edge.i ], [ %28, %27 ], [ %16, %Vec_IntGrow.exit.i ]
  %30 = load i32, ptr %3, align 4, !tbaa !9
  %31 = add nsw i32 %30, 1
  store i32 %31, ptr %3, align 4, !tbaa !9
  %32 = sext i32 %30 to i64
  %33 = getelementptr inbounds i32, ptr %29, i64 %32
  store i32 0, ptr %33, align 4, !tbaa !19
  %34 = load i32, ptr %3, align 4, !tbaa !9
  %35 = load i32, ptr %0, align 8, !tbaa !14
  %36 = icmp eq i32 %34, %35
  br i1 %36, label %37, label %Vec_IntPush.exit9

37:                                               ; preds = %Vec_IntPush.exit
  %38 = icmp slt i32 %34, 16
  br i1 %38, label %Vec_IntGrow.exit.i8, label %41

Vec_IntGrow.exit.i8:                              ; preds = %37
  %39 = getelementptr inbounds nuw i8, ptr %0, i64 8
  %40 = tail call dereferenceable_or_null(64) ptr @realloc(ptr noundef nonnull %29, i64 noundef 64) #29
  store ptr %40, ptr %39, align 8, !tbaa !15
  br label %Vec_IntPush.exit9.sink.split

41:                                               ; preds = %37
  %42 = shl nuw nsw i32 %34, 1
  %43 = getelementptr inbounds nuw i8, ptr %0, i64 8
  %44 = zext nneg i32 %42 to i64
  %45 = shl nuw nsw i64 %44, 2
  %46 = tail call ptr @realloc(ptr noundef nonnull %29, i64 noundef %45) #29
  store ptr %46, ptr %43, align 8, !tbaa !15
  br label %Vec_IntPush.exit9.sink.split

Vec_IntPush.exit9.sink.split:                     ; preds = %41, %Vec_IntGrow.exit.i8
  %.sink = phi i32 [ 16, %Vec_IntGrow.exit.i8 ], [ %42, %41 ]
  %.ph = phi ptr [ %40, %Vec_IntGrow.exit.i8 ], [ %46, %41 ]
  store i32 %.sink, ptr %0, align 8, !tbaa !14
  br label %Vec_IntPush.exit9

Vec_IntPush.exit9:                                ; preds = %Vec_IntPush.exit9.sink.split, %Vec_IntPush.exit
  %47 = phi ptr [ %29, %Vec_IntPush.exit ], [ %.ph, %Vec_IntPush.exit9.sink.split ]
  %48 = load i32, ptr %3, align 4, !tbaa !9
  %49 = add nsw i32 %48, 1
  store i32 %49, ptr %3, align 4, !tbaa !9
  %50 = sext i32 %48 to i64
  %51 = getelementptr inbounds i32, ptr %47, i64 %50
  store i32 %1, ptr %51, align 4, !tbaa !19
  ret void
}